target datalayout = "e-m:e-p270:32:32-p271:32:32-p272:64:64-i64:64-i128:128-f80:128-n8:16:32:64-S128"
target triple = "x86_64-unknown-linux-gnu"

%"class.node::MemoryRetainer" = type { ptr }
%"struct.node::quic::TransportParams::Options" = type <{ %"class.node::MemoryRetainer", %"class.std::optional.315", %"class.std::optional.315", i64, i64, i64, i64, i64, i64, i64, i64, i64, i64, i64, i8, [7 x i8] }>
%"class.std::optional.315" = type { %"struct.std::_Optional_base.316" }
%"struct.std::_Optional_base.316" = type { %"struct.std::_Optional_payload.318" }
%"struct.std::_Optional_payload.318" = type { %"struct.std::_Optional_payload.base", [7 x i8] }
%"struct.std::_Optional_payload.base" = type { %"struct.std::_Optional_payload_base.base" }
%"struct.std::_Optional_payload_base.base" = type <{ %"union.std::_Optional_payload_base<node::SocketAddress>::_Storage", i8 }>
%"union.std::_Optional_payload_base<node::SocketAddress>::_Storage" = type { %"class.node::SocketAddress" }
%"class.node::SocketAddress" = type { %"class.node::MemoryRetainer", %struct.sockaddr_storage }
%struct.sockaddr_storage = type { i16, [118 x i8], i64 }
%"struct.node::quic::TLSContext::Options" = type { %"class.node::MemoryRetainer", %"class.std::__cxx11::basic_string", %"class.std::__cxx11::basic_string", i8, i8, i8, i8, i8, %"class.std::__cxx11::basic_string", %"class.std::__cxx11::basic_string", %"class.std::__cxx11::basic_string", %"class.std::vector.322", %"class.std::vector.327", %"class.std::vector.327", %"class.std::vector.327" }
%"class.std::__cxx11::basic_string" = type { %"struct.std::__cxx11::basic_string<char>::_Alloc_hider", i64, %union.anon.138 }
%"struct.std::__cxx11::basic_string<char>::_Alloc_hider" = type { ptr }
%union.anon.138 = type { i64, [8 x i8] }
%"class.std::vector.322" = type { %"struct.std::_Vector_base.323" }
%"struct.std::_Vector_base.323" = type { %"struct.std::_Vector_base<std::shared_ptr<node::crypto::KeyObjectData>, std::allocator<std::shared_ptr<node::crypto::KeyObjectData>>>::_Vector_impl" }
%"struct.std::_Vector_base<std::shared_ptr<node::crypto::KeyObjectData>, std::allocator<std::shared_ptr<node::crypto::KeyObjectData>>>::_Vector_impl" = type { %"struct.std::_Vector_base<std::shared_ptr<node::crypto::KeyObjectData>, std::allocator<std::shared_ptr<node::crypto::KeyObjectData>>>::_Vector_impl_data" }
%"struct.std::_Vector_base<std::shared_ptr<node::crypto::KeyObjectData>, std::allocator<std::shared_ptr<node::crypto::KeyObjectData>>>::_Vector_impl_data" = type { ptr, ptr, ptr }
%"class.std::vector.327" = type { %"struct.std::_Vector_base.328" }
%"struct.std::_Vector_base.328" = type { %"struct.std::_Vector_base<node::quic::Store, std::allocator<node::quic::Store>>::_Vector_impl" }
%"struct.std::_Vector_base<node::quic::Store, std::allocator<node::quic::Store>>::_Vector_impl" = type { %"struct.std::_Vector_base<node::quic::Store, std::allocator<node::quic::Store>>::_Vector_impl_data" }
%"struct.std::_Vector_base<node::quic::Store, std::allocator<node::quic::Store>>::_Vector_impl_data" = type { ptr, ptr, ptr }
%"struct.node::quic::Session::Application_Options" = type { %"class.node::MemoryRetainer", i64, i64, i64, i64, i64, i64 }
%"struct.node::quic::Endpoint::Options" = type <{ %"class.node::MemoryRetainer", %"class.node::SocketAddress", i64, i64, i64, i64, i64, i64, i64, i64, i64, i8, i8, [2 x i8], i32, %"class.node::quic::TokenSecret", %"class.node::quic::TokenSecret", i8, [3 x i8], i32, i32, i8, [3 x i8] }>
%"class.node::quic::TokenSecret" = type { %"class.node::MemoryRetainer", [16 x i8] }
%"class.v8::IndirectHandleBase" = type { ptr }
%"class.std::shared_ptr.308" = type { %"class.std::__shared_ptr.309" }
%"class.std::__shared_ptr.309" = type { ptr, %"class.std::__shared_count" }
%"class.std::__shared_count" = type { ptr }
%"class.node::quic::Endpoint::UDP" = type <{ %"class.node::MemoryRetainer", %"class.node::BaseObjectPtrImpl", i8, i8, [6 x i8] }>
%"class.node::BaseObjectPtrImpl" = type { %union.anon }
%union.anon = type { ptr }
%"class.node::BaseObject" = type { %"class.node::MemoryRetainer", %"class.v8::Global", ptr, ptr }
%"class.v8::Global" = type { %"class.v8::PersistentBase" }
%"class.v8::PersistentBase" = type { %"class.v8::IndirectHandleBase" }
%"struct.std::__detail::_Hash_node_base" = type { ptr }
%"struct.std::__detail::_Prime_rehash_policy" = type { float, i64 }
%"struct.std::__detail::_List_node_header" = type { %"struct.std::__detail::_List_node_base", i64 }
%"struct.std::__detail::_List_node_base" = type { ptr, ptr }
%"class.node::AsyncWrap" = type { %"class.node::BaseObject", i32, i8, double, double }
%"struct.node::quic::Session::Options" = type <{ %"class.node::MemoryRetainer", i32, i32, i32, [4 x i8], %"struct.node::quic::TransportParams::Options", %"struct.node::quic::TLSContext::Options", %"struct.node::quic::Session::Application_Options", ptr, %"class.node::BaseObjectPtrImpl.332", i8, [7 x i8] }>
%"class.node::BaseObjectPtrImpl.332" = type { %union.anon.333 }
%union.anon.333 = type { ptr }
%"class.node::quic::Endpoint" = type { %"class.node::AsyncWrap", %"class.node::quic::Packet::Listener", %"class.node::AliasedStruct", %"class.node::AliasedStruct.313", %"struct.node::quic::Endpoint::Options", %"class.node::quic::Endpoint::UDP", %"class.std::optional", %"class.std::unordered_map.338", %"class.std::unordered_map.356", %"class.std::unordered_map.370", %"class.node::SocketAddressLRU", i32, i32 }
%"class.node::quic::Packet::Listener" = type { ptr }
%"class.node::AliasedStruct" = type { ptr, %"class.std::shared_ptr.308", ptr, %"class.v8::Global.311" }
%"class.v8::Global.311" = type { %"class.v8::PersistentBase.312" }
%"class.v8::PersistentBase.312" = type { %"class.v8::IndirectHandleBase" }
%"class.node::AliasedStruct.313" = type { ptr, %"class.std::shared_ptr.308", ptr, %"class.v8::Global.311" }
%"class.std::optional" = type { %"struct.std::_Optional_base" }
%"struct.std::_Optional_base" = type { %"struct.std::_Optional_payload" }
%"struct.std::_Optional_payload" = type { %"struct.std::_Optional_payload.base.335", [7 x i8] }
%"struct.std::_Optional_payload.base.335" = type { %"struct.std::_Optional_payload_base.base.334" }
%"struct.std::_Optional_payload_base.base.334" = type { %"union.std::_Optional_payload_base<node::quic::Session::Options>::_Storage", i8 }
%"union.std::_Optional_payload_base<node::quic::Session::Options>::_Storage" = type { %"struct.node::quic::Session::Options" }
%"class.std::unordered_map.338" = type { %"class.std::_Hashtable.339" }
%"class.std::_Hashtable.339" = type { %"struct.std::__detail::_Hashtable_base.340", ptr, i64, %"struct.std::__detail::_Hash_node_base", i64, %"struct.std::__detail::_Prime_rehash_policy", ptr }
%"struct.std::__detail::_Hashtable_base.340" = type { %"struct.std::__detail::_Hash_code_base.341" }
%"struct.std::__detail::_Hash_code_base.341" = type { %"struct.std::__detail::_Hashtable_ebo_helper.342" }
%"struct.std::__detail::_Hashtable_ebo_helper.342" = type { %"struct.node::quic::CID::Hash" }
%"struct.node::quic::CID::Hash" = type { i8 }
%"class.std::unordered_map.356" = type { %"class.std::_Hashtable.357" }
%"class.std::_Hashtable.357" = type { %"struct.std::__detail::_Hashtable_base.358", ptr, i64, %"struct.std::__detail::_Hash_node_base", i64, %"struct.std::__detail::_Prime_rehash_policy", ptr }
%"struct.std::__detail::_Hashtable_base.358" = type { %"struct.std::__detail::_Hash_code_base.359" }
%"struct.std::__detail::_Hash_code_base.359" = type { %"struct.std::__detail::_Hashtable_ebo_helper.342" }
%"class.std::unordered_map.370" = type { %"class.std::_Hashtable.371" }
%"class.std::_Hashtable.371" = type { ptr, i64, %"struct.std::__detail::_Hash_node_base", i64, %"struct.std::__detail::_Prime_rehash_policy", ptr }
%"class.node::SocketAddressLRU" = type { %"class.node::MemoryRetainer", %"class.std::__cxx11::list.388", %"class.std::unordered_map.393", i64 }
%"class.std::__cxx11::list.388" = type { %"class.std::__cxx11::_List_base.389" }
%"class.std::__cxx11::_List_base.389" = type { %"struct.std::__cxx11::_List_base<std::pair<node::SocketAddress, node::quic::Endpoint::SocketAddressInfoTraits::Type>, std::allocator<std::pair<node::SocketAddress, node::quic::Endpoint::SocketAddressInfoTraits::Type>>>::_List_impl" }
%"struct.std::__cxx11::_List_base<std::pair<node::SocketAddress, node::quic::Endpoint::SocketAddressInfoTraits::Type>, std::allocator<std::pair<node::SocketAddress, node::quic::Endpoint::SocketAddressInfoTraits::Type>>>::_List_impl" = type { %"struct.std::__detail::_List_node_header" }
%"class.std::unordered_map.393" = type { %"class.std::_Hashtable.394" }
%"class.std::_Hashtable.394" = type { ptr, i64, %"struct.std::__detail::_Hash_node_base", i64, %"struct.std::__detail::_Prime_rehash_policy", ptr }
%"struct.node::quic::Endpoint::State" = type { i8, i8, i8, i8, i8, i8, i64 }

; Function Attrs: mustprogress nounwind uwtable
define linkonce_odr dso_local noundef ptr @_ZNK4node13AliasedStructINS_4quic8Endpoint5StateEEptEv(ptr noundef nonnull align 8 dereferenceable(40) %this) #4 comdat align 2 {
entry:
  %this.addr = alloca ptr, align 8
  store ptr %this, ptr %this.addr, align 8
  %this1 = load ptr, ptr %this.addr, align 8
  %ptr_ = getelementptr inbounds %"class.node::AliasedStruct.313", ptr %this1, i32 0, i32 2
  %0 = load ptr, ptr %ptr_, align 8
  ret ptr %0
}

; Function Attrs: mustprogress nounwind uwtable
define dso_local noundef zeroext i1 @_ZNK4node4quic8Endpoint10is_closingEv(ptr noundef nonnull align 8 dereferenceable(1520) %this) #4 align 2 {
entry:
  %this.addr = alloca ptr, align 8
  store ptr %this, ptr %this.addr, align 8
  %this1 = load ptr, ptr %this.addr, align 8
  %state_ = getelementptr inbounds %"class.node::quic::Endpoint", ptr %this1, i32 0, i32 3
  %call = call noundef ptr @_ZNK4node13AliasedStructINS_4quic8Endpoint5StateEEptEv(ptr noundef nonnull align 8 dereferenceable(40) %state_)
  %closing = getelementptr inbounds %"struct.node::quic::Endpoint::State", ptr %call, i32 0, i32 3
  %0 = load i8, ptr %closing, align 1
  %tobool = icmp ne i8 %0, 0
  ret i1 %tobool
}